; Function Attrs: alwaysinline norecurse nounwind uwtable
define internal void @_ZNK8LightGBM16RegressionMetricINS_14FairLossMetricEE4EvalEPKdPKNS_17ObjectiveFunctionE.omp_outlined.43(ptr noalias noundef readonly captures(none) %0, ptr noalias readnone captures(none) %1, ptr noundef readonly captures(none) %2, ptr noundef nonnull readonly align 8 captures(none) dereferenceable(8) %3, ptr noundef nonnull readonly align 8 captures(none) dereferenceable(8) %4, ptr noundef nonnull align 8 captures(none) dereferenceable(8) %5) #15 personality ptr @__gxx_personality_v0 {
  %7 = alloca i32, align 4
  %8 = alloca i32, align 4
  %9 = alloca i32, align 4
  %10 = alloca i32, align 4
  %11 = alloca double, align 8
  %12 = alloca double, align 8
  %13 = alloca [1 x ptr], align 8
  %14 = getelementptr inbounds nuw i8, ptr %2, i64 8
  %15 = load i32, ptr %14, align 8, !tbaa !155
  %16 = icmp sgt i32 %15, 0
  br i1 %16, label %17, label %66

17:                                               ; preds = %6
  %18 = add nsw i32 %15, -1
  call void @llvm.lifetime.start.p0(i64 4, ptr nonnull %7) #16
  store i32 0, ptr %7, align 4, !tbaa !127
  call void @llvm.lifetime.start.p0(i64 4, ptr nonnull %8) #16
  store i32 %18, ptr %8, align 4, !tbaa !127
  call void @llvm.lifetime.start.p0(i64 4, ptr nonnull %9) #16
  store i32 1, ptr %9, align 4, !tbaa !127
  call void @llvm.lifetime.start.p0(i64 4, ptr nonnull %10) #16
  store i32 0, ptr %10, align 4, !tbaa !127
  call void @llvm.lifetime.start.p0(i64 8, ptr nonnull %11) #16
  store double 0.000000e+00, ptr %11, align 8, !tbaa !84
  %19 = load i32, ptr %0, align 4, !tbaa !127
  call void @__kmpc_for_static_init_4(ptr nonnull @1, i32 %19, i32 34, ptr nonnull %10, ptr nonnull %7, ptr nonnull %8, ptr nonnull %9, i32 1, i32 1)
  %20 = load i32, ptr %8, align 4, !tbaa !127
  %21 = call i32 @llvm.smin.i32(i32 %20, i32 %18)
  store i32 %21, ptr %8, align 4, !tbaa !127
  %22 = load i32, ptr %7, align 4, !tbaa !127
  %.not17 = icmp sgt i32 %22, %21
  br i1 %.not17, label %._crit_edge, label %.lr.ph

.lr.ph:                                           ; preds = %17
  %23 = getelementptr inbounds nuw i8, ptr %2, i64 16
  %24 = getelementptr inbounds nuw i8, ptr %2, i64 1352
  %25 = getelementptr inbounds nuw i8, ptr %2, i64 24
  %26 = sext i32 %22 to i64
  br label %27

27:                                               ; preds = %.lr.ph, %35
  %28 = phi double [ 0.000000e+00, %.lr.ph ], [ %54, %35 ]
  %indvars.iv = phi i64 [ %26, %.lr.ph ], [ %indvars.iv.next, %35 ]
  call void @llvm.lifetime.start.p0(i64 8, ptr nonnull %12) #16
  store double 0.000000e+00, ptr %12, align 8, !tbaa !84
  %29 = load ptr, ptr %3, align 8, !tbaa !82
  %30 = load ptr, ptr %4, align 8, !tbaa !81
  %31 = getelementptr inbounds double, ptr %30, i64 %indvars.iv
  %32 = load ptr, ptr %29, align 8, !tbaa !15
  %33 = getelementptr inbounds nuw i8, ptr %32, i64 136
  %34 = load ptr, ptr %33, align 8
  invoke void %34(ptr noundef nonnull align 8 dereferenceable(8) %29, ptr noundef %31, ptr noundef nonnull %12)
          to label %35 unwind label %67

35:                                               ; preds = %27
  %36 = load ptr, ptr %23, align 8, !tbaa !157
  %37 = getelementptr inbounds float, ptr %36, i64 %indvars.iv
  %38 = load float, ptr %37, align 4, !tbaa !78
  %39 = load double, ptr %12, align 8, !tbaa !84
  %40 = fpext float %38 to double
  %41 = fsub double %39, %40
  %42 = call double @llvm.fabs.f64(double %41)
  %43 = load double, ptr %24, align 8, !tbaa !161
  %44 = fmul double %43, %43
  %45 = fdiv double %42, %43
  %46 = call double @log1p(double noundef %45) #16, !tbaa !127
  %47 = fneg double %46
  %48 = fmul double %44, %47
  %49 = call noundef double @llvm.fmuladd.f64(double %43, double %42, double %48)
  %50 = load ptr, ptr %25, align 8, !tbaa !158
  %51 = getelementptr inbounds float, ptr %50, i64 %indvars.iv
  %52 = load float, ptr %51, align 4, !tbaa !78
  %53 = fpext float %52 to double
  %54 = call double @llvm.fmuladd.f64(double %49, double %53, double %28)
  store double %54, ptr %11, align 8, !tbaa !84
  call void @llvm.lifetime.end.p0(i64 8, ptr nonnull %12) #16
  %indvars.iv.next = add nsw i64 %indvars.iv, 1
  %55 = load i32, ptr %8, align 4, !tbaa !127
  %56 = sext i32 %55 to i64
  %.not.not = icmp slt i64 %indvars.iv, %56
  br i1 %.not.not, label %27, label %._crit_edge

._crit_edge:                                      ; preds = %35, %17
  call void @__kmpc_for_static_fini(ptr nonnull @1, i32 %19)
  store ptr %11, ptr %13, align 8
  %57 = call i32 @__kmpc_reduce_nowait(ptr nonnull @2, i32 %19, i32 1, i64 8, ptr nonnull %13, ptr nonnull @_ZNK8LightGBM16RegressionMetricINS_14FairLossMetricEE4EvalEPKdPKNS_17ObjectiveFunctionE.omp_outlined.43.omp.reduction.reduction_func, ptr nonnull @.gomp_critical_user_.reduction.var)
  switch i32 %57, label %65 [
    i32 1, label %58
    i32 2, label %62
  ]

58:                                               ; preds = %._crit_edge
  %59 = load double, ptr %5, align 8, !tbaa !84
  %60 = load double, ptr %11, align 8, !tbaa !84
  %61 = fadd double %59, %60
  store double %61, ptr %5, align 8, !tbaa !84
  call void @__kmpc_end_reduce_nowait(ptr nonnull @2, i32 %19, ptr nonnull @.gomp_critical_user_.reduction.var)
  br label %65

62:                                               ; preds = %._crit_edge
  %63 = load double, ptr %11, align 8, !tbaa !84
  %64 = atomicrmw fadd ptr %5, double %63 monotonic, align 8
  br label %65

65:                                               ; preds = %62, %58, %._crit_edge
  call void @llvm.lifetime.end.p0(i64 8, ptr nonnull %11) #16
  call void @llvm.lifetime.end.p0(i64 4, ptr nonnull %10) #16
  call void @llvm.lifetime.end.p0(i64 4, ptr nonnull %9) #16
  call void @llvm.lifetime.end.p0(i64 4, ptr nonnull %8) #16
  call void @llvm.lifetime.end.p0(i64 4, ptr nonnull %7) #16
  br label %66

66:                                               ; preds = %65, %6
  ret void

67:                                               ; preds = %27
  %68 = landingpad { ptr, i32 }
          catch ptr null
  %69 = extractvalue { ptr, i32 } %68, 0
  call void @__clang_call_terminate(ptr %69) #35
  unreachable
}